; Function Attrs: mustprogress uwtable
define internal void @_ZNSt17_Function_handlerIFNSt7__cxx1112basic_stringIcSt11char_traitsIcESaIcEEEN5Yosys10Functional4NodeEEZN12_GLOBAL__N_121FunctionalTestGeneric7executeESt6vectorIS5_SaIS5_EEPNS6_5RTLIL6DesignEEUlT_E_E9_M_invokeERKSt9_Any_dataOS8_(ptr dead_on_unwind noalias writable sret(%"class.std::__cxx11::basic_string") align 8 %0, ptr nonnull readnone align 8 captures(none) %1, ptr noundef nonnull readonly align 8 captures(none) dereferenceable(16) %2) #5 align 2 personality ptr @__gxx_personality_v0 {
  %4 = alloca %"class.Yosys::Functional::Node", align 8
  %5 = alloca %"struct.Yosys::RTLIL::IdString", align 4
  %.val = load ptr, ptr %2, align 8, !tbaa !190
  %6 = getelementptr inbounds nuw i8, ptr %2, i64 8
  %.val2 = load i32, ptr %6, align 8, !tbaa !58
  call void @llvm.lifetime.start.p0(i64 16, ptr nonnull %4), !noalias !191
  store ptr %.val, ptr %4, align 8, !noalias !196
  %7 = getelementptr inbounds nuw i8, ptr %4, i64 8
  store i32 %.val2, ptr %7, align 8, !noalias !196
  call void @llvm.lifetime.start.p0(i64 4, ptr nonnull %5) #24, !noalias !196
  call void @_ZNK5Yosys10Functional4Node4nameEv(ptr dead_on_unwind nonnull writable sret(%"struct.Yosys::RTLIL::IdString") align 4 %5, ptr noundef nonnull align 8 dereferenceable(16) %4), !noalias !196
  %.val.i.i.i = load i32, ptr %5, align 4, !tbaa !32, !noalias !199
  invoke fastcc void @_ZN5Yosys5RTLILL11unescape_idB5cxx11ERKNS0_8IdStringE(ptr dead_on_unwind noalias writable align 8 %0, i32 %.val.i.i.i)
          to label %8 unwind label %24

8:                                                ; preds = %3
  %9 = load i32, ptr %5, align 4, !tbaa !32, !noalias !196
  %10 = load i8, ptr @_ZN5Yosys5RTLIL8IdString17destruct_guard_okE, align 1, !tbaa !51, !range !53, !noalias !196, !noundef !54
  %11 = trunc nuw i8 %10 to i1
  %12 = icmp ne i32 %9, 0
  %or.cond.i.i.i.i.i = and i1 %12, %11
  br i1 %or.cond.i.i.i.i.i, label %13, label %_ZSt10__invoke_rINSt7__cxx1112basic_stringIcSt11char_traitsIcESaIcEEERZN12_GLOBAL__N_121FunctionalTestGeneric7executeESt6vectorIS5_SaIS5_EEPN5Yosys5RTLIL6DesignEEUlT_E_JNSB_10Functional4NodeEEENSt9enable_ifIX16is_invocable_r_vISF_T0_DpT1_EESF_E4typeEOSL_DpOSM_.exit

13:                                               ; preds = %8
  %14 = sext i32 %9 to i64
  %15 = load ptr, ptr @_ZN5Yosys5RTLIL8IdString24global_refcount_storage_E, align 8, !tbaa !55, !noalias !196
  %16 = getelementptr inbounds nuw i32, ptr %15, i64 %14
  %17 = load i32, ptr %16, align 4, !tbaa !58
  %18 = add nsw i32 %17, -1
  store i32 %18, ptr %16, align 4, !tbaa !58
  %19 = icmp sgt i32 %17, 1
  br i1 %19, label %_ZSt10__invoke_rINSt7__cxx1112basic_stringIcSt11char_traitsIcESaIcEEERZN12_GLOBAL__N_121FunctionalTestGeneric7executeESt6vectorIS5_SaIS5_EEPN5Yosys5RTLIL6DesignEEUlT_E_JNSB_10Functional4NodeEEENSt9enable_ifIX16is_invocable_r_vISF_T0_DpT1_EESF_E4typeEOSL_DpOSM_.exit, label %20

20:                                               ; preds = %13
  invoke void @_ZN5Yosys5RTLIL8IdString14free_referenceEi(i32 noundef %9)
          to label %_ZSt10__invoke_rINSt7__cxx1112basic_stringIcSt11char_traitsIcESaIcEEERZN12_GLOBAL__N_121FunctionalTestGeneric7executeESt6vectorIS5_SaIS5_EEPN5Yosys5RTLIL6DesignEEUlT_E_JNSB_10Functional4NodeEEENSt9enable_ifIX16is_invocable_r_vISF_T0_DpT1_EESF_E4typeEOSL_DpOSM_.exit unwind label %21

21:                                               ; preds = %20
  %22 = landingpad { ptr, i32 }
          catch ptr null
  %23 = extractvalue { ptr, i32 } %22, 0
  call void @__clang_call_terminate(ptr %23) #28
  unreachable

24:                                               ; preds = %3
  %25 = landingpad { ptr, i32 }
          cleanup
  call void @_ZN5Yosys5RTLIL8IdStringD2Ev(ptr noundef nonnull align 4 dereferenceable(4) %5) #24
  call void @llvm.lifetime.end.p0(i64 4, ptr nonnull %5) #24, !noalias !196
  resume { ptr, i32 } %25

_ZSt10__invoke_rINSt7__cxx1112basic_stringIcSt11char_traitsIcESaIcEEERZN12_GLOBAL__N_121FunctionalTestGeneric7executeESt6vectorIS5_SaIS5_EEPN5Yosys5RTLIL6DesignEEUlT_E_JNSB_10Functional4NodeEEENSt9enable_ifIX16is_invocable_r_vISF_T0_DpT1_EESF_E4typeEOSL_DpOSM_.exit: ; preds = %8, %13, %20
  call void @llvm.lifetime.end.p0(i64 4, ptr nonnull %5) #24, !noalias !196
  call void @llvm.lifetime.end.p0(i64 16, ptr nonnull %4), !noalias !191
  ret void
}